target datalayout = "e-m:e-p270:32:32-p271:32:32-p272:64:64-i64:64-i128:128-f80:128-n8:16:32:64-S128"
target triple = "x86_64-pc-linux-gnu"

%struct.RBasic = type { i64, i64 }
%struct.RString = type { %struct.RBasic, i64, %union.anon }
%union.anon = type { %struct.anon }
%struct.anon = type { ptr, %union.anon.0 }
%union.anon.0 = type { i64 }

@ruby_global_symbols = hidden global { i32, [4 x i8], ptr, i64, i64 } { i32 246, [4 x i8] zeroinitializer, ptr null, i64 0, i64 0 }, align 8
@.str.5 = private unnamed_addr constant [12 x i8] c"../symbol.c\00", align 1
@ruby_single_main_ractor = external global ptr, align 8

; Function Attrs: inlinehint nounwind sspstrong uwtable
define internal zeroext i1 @rb_multi_ractor_p() #4 {
  %1 = alloca i1, align 1
  %2 = load ptr, ptr @ruby_single_main_ractor, align 8, !tbaa !94
  %3 = icmp ne ptr %2, null
  %4 = xor i1 %3, true
  %5 = xor i1 %4, true
  %6 = zext i1 %5 to i32
  %7 = sext i32 %6 to i64
  %8 = call i64 @llvm.expect.i64(i64 %7, i64 1)
  %9 = icmp ne i64 %8, 0
  br i1 %9, label %10, label %11

10:                                               ; preds = %0
  store i1 false, ptr %1, align 1
  br label %12

11:                                               ; preds = %0
  store i1 true, ptr %1, align 1
  br label %12

12:                                               ; preds = %11, %10
  %13 = load i1, ptr %1, align 1
  ret i1 %13
}

; Function Attrs: inlinehint nounwind sspstrong uwtable
define internal void @rb_vm_lock_leave(ptr noundef %0, ptr noundef %1, i32 noundef %2) #4 {
  %4 = alloca ptr, align 8
  %5 = alloca ptr, align 8
  %6 = alloca i32, align 4
  store ptr %0, ptr %4, align 8, !tbaa !40
  store ptr %1, ptr %5, align 8, !tbaa !33
  store i32 %2, ptr %6, align 4, !tbaa !21
  %7 = call zeroext i1 @rb_multi_ractor_p()
  br i1 %7, label %8, label %10

8:                                                ; preds = %3
  %9 = load ptr, ptr %4, align 8, !tbaa !40
  call void @rb_vm_lock_leave_body(ptr noundef %9)
  br label %10

10:                                               ; preds = %8, %3
  ret void
}

; Function Attrs: inlinehint nounwind sspstrong uwtable
define internal void @rb_vm_lock_enter(ptr noundef %0, ptr noundef %1, i32 noundef %2) #4 {
  %4 = alloca ptr, align 8
  %5 = alloca ptr, align 8
  %6 = alloca i32, align 4
  store ptr %0, ptr %4, align 8, !tbaa !40
  store ptr %1, ptr %5, align 8, !tbaa !33
  store i32 %2, ptr %6, align 4, !tbaa !21
  %7 = call zeroext i1 @rb_multi_ractor_p()
  br i1 %7, label %8, label %10

8:                                                ; preds = %3
  %9 = load ptr, ptr %4, align 8, !tbaa !40
  call void @rb_vm_lock_enter_body(ptr noundef %9)
  br label %10

10:                                               ; preds = %8, %3
  ret void
}

; Function Attrs: nounwind sspstrong uwtable
define internal i64 @lookup_str_sym(i64 noundef %0) #0 {
  %2 = alloca i64, align 8
  %3 = alloca i64, align 8
  %4 = alloca ptr, align 8
  %5 = alloca i32, align 4
  store i64 %0, ptr %2, align 8, !tbaa !11
  call void @llvm.lifetime.start.p0(i64 8, ptr %3) #24
  call void @llvm.lifetime.start.p0(i64 8, ptr %4) #24
  store ptr @ruby_global_symbols, ptr %4, align 8, !tbaa !7
  call void @llvm.lifetime.start.p0(i64 4, ptr %5) #24
  call void @rb_vm_lock_enter(ptr noundef %5, ptr noundef @.str.5, i32 noundef 752)
  %6 = load ptr, ptr %4, align 8, !tbaa !7
  %7 = load i64, ptr %2, align 8, !tbaa !11
  %8 = call i64 @lookup_str_sym_with_lock(ptr noundef %6, i64 noundef %7)
  store i64 %8, ptr %3, align 8, !tbaa !11
  call void @rb_vm_lock_leave(ptr noundef %5, ptr noundef @.str.5, i32 noundef 756)
  call void @llvm.lifetime.end.p0(i64 4, ptr %5) #24
  %9 = load i64, ptr %3, align 8, !tbaa !11
  call void @llvm.lifetime.end.p0(i64 8, ptr %4) #24
  call void @llvm.lifetime.end.p0(i64 8, ptr %3) #24
  ret i64 %9
}

; Function Attrs: nounwind sspstrong uwtable
define dso_local i64 @rb_intern3(ptr noundef %0, i64 noundef %1, ptr noundef %2) #0 {
  %4 = alloca i64, align 8
  %5 = alloca ptr, align 8
  %6 = alloca i64, align 8
  %7 = alloca ptr, align 8
  %8 = alloca i64, align 8
  %9 = alloca %struct.RString, align 8
  %10 = alloca i64, align 8
  %11 = alloca i32, align 4
  store ptr %0, ptr %5, align 8, !tbaa !33
  store i64 %1, ptr %6, align 8, !tbaa !11
  store ptr %2, ptr %7, align 8, !tbaa !19
  call void @llvm.lifetime.start.p0(i64 8, ptr %8) #24
  call void @llvm.lifetime.start.p0(i64 40, ptr %9) #24
  call void @llvm.lifetime.start.p0(i64 8, ptr %10) #24
  %12 = load ptr, ptr %5, align 8, !tbaa !33
  %13 = load i64, ptr %6, align 8, !tbaa !11
  %14 = load ptr, ptr %7, align 8, !tbaa !19
  %15 = call i64 @rb_setup_fake_str(ptr noundef %9, ptr noundef %12, i64 noundef %13, ptr noundef %14)
  store i64 %15, ptr %10, align 8, !tbaa !11
  %16 = load i64, ptr %10, align 8, !tbaa !11
  call void @rb_obj_freeze_inline(i64 noundef %16)
  %17 = load i64, ptr %10, align 8, !tbaa !11
  %18 = call i64 @lookup_str_sym(i64 noundef %17)
  store i64 %18, ptr %8, align 8, !tbaa !11
  %19 = load i64, ptr %8, align 8, !tbaa !11
  %20 = icmp ne i64 %19, 0
  br i1 %20, label %21, label %24

21:                                               ; preds = %3
  %22 = load i64, ptr %8, align 8, !tbaa !11
  %23 = call i64 @rb_sym2id(i64 noundef %22)
  store i64 %23, ptr %4, align 8
  store i32 1, ptr %11, align 4
  br label %37

24:                                               ; preds = %3
  br i1 false, label %25, label %28

25:                                               ; preds = %24
  %26 = load i64, ptr %6, align 8, !tbaa !11
  %27 = call i1 @llvm.is.constant.i64(i64 %26)
  br label %28

28:                                               ; preds = %25, %24
  %29 = phi i1 [ false, %24 ], [ %27, %25 ]
  %30 = select i1 %29, ptr @rb_enc_str_new_static, ptr @rb_enc_str_new
  %31 = load ptr, ptr %5, align 8, !tbaa !33
  %32 = load i64, ptr %6, align 8, !tbaa !11
  %33 = load ptr, ptr %7, align 8, !tbaa !19
  %34 = call i64 %30(ptr noundef %31, i64 noundef %32, ptr noundef %33)
  store i64 %34, ptr %10, align 8, !tbaa !11
  %35 = load i64, ptr %10, align 8, !tbaa !11
  %36 = call i64 @intern_str(i64 noundef %35, i32 noundef 1)
  store i64 %36, ptr %4, align 8
  store i32 1, ptr %11, align 4
  br label %37

37:                                               ; preds = %28, %21
  call void @llvm.lifetime.end.p0(i64 8, ptr %10) #24
  call void @llvm.lifetime.end.p0(i64 40, ptr %9) #24
  call void @llvm.lifetime.end.p0(i64 8, ptr %8) #24
  %38 = load i64, ptr %4, align 8
  ret i64 %38
}